; Function Attrs: nounwind sspstrong uwtable
define dso_local nonnull ptr @aio_get_linux_io_uring(ptr noundef readonly captures(none) %ctx) local_unnamed_addr #0 {
entry:
  %linux_io_uring = getelementptr inbounds nuw i8, ptr %ctx, i64 248
  %0 = load ptr, ptr %linux_io_uring, align 8
  %tobool.not = icmp eq ptr %0, null
  br i1 %tobool.not, label %if.else, label %if.end

if.else:                                          ; preds = %entry
  tail call void @__assert_fail(ptr noundef nonnull @.str.1, ptr noundef nonnull @.str, i32 noundef 480, ptr noundef nonnull @__PRETTY_FUNCTION__.aio_get_linux_io_uring) #14
  unreachable

if.end:                                           ; preds = %entry
  ret ptr %0
}